Certificate:
    Data:
        Version: 3 (0x2)
        Serial Number:
            e7:09:79:a6:28:d8:cb:4e:e0:9c:4c:17:c7:52:db:62
        Signature Algorithm: sha256WithRSAEncryption
        Issuer: CN=root
        Validity
            Not Before: May 27 11:03:50 2022 GMT
            Not After : Aug 29 11:03:50 2024 GMT
        Subject: CN=venus
        Subject Public Key Info:
            Public Key Algorithm: rsaEncryption
                RSA Public-Key: (2048 bit)
                Modulus:
                    00:e8:d8:df:ff:d4:2f:e6:96:3a:ba:9f:81:6e:ad:
                    b4:5a:0a:e3:97:df:08:27:8e:c1:8c:98:62:2b:15:
                    a7:d0:72:8b:65:d8:27:6a:88:70:2a:32:8c:ea:32:
                    9e:2d:40:d7:f5:71:84:5e:24:55:8d:d3:65:9d:d9:
                    5f:0a:1c:d1:e0:75:49:56:65:8f:c4:09:11:96:e3:
                    f6:c8:0f:78:13:2b:6f:e5:ff:6b:2d:0b:ec:69:3d:
                    f1:c7:a9:bf:ee:88:d2:4a:fc:0a:32:74:29:63:20:
                    c2:b2:72:84:29:24:85:e9:68:a8:bc:2a:23:73:6a:
                    0c:ad:b1:bd:7d:5c:73:93:bd:f8:93:ea:24:2b:d8:
                    16:eb:78:45:94:13:04:70:aa:8c:69:46:93:3c:97:
                    83:31:e6:77:2d:0f:9e:59:02:02:61:73:af:a8:10:
                    e9:c3:74:be:f1:e2:19:f8:de:86:a3:bf:06:6d:d5:
                    25:e7:fa:59:35:98:9a:c9:b6:36:32:7b:4f:de:c1:
                    d8:09:79:bc:6c:2a:fe:52:c1:50:f4:c7:90:cb:f7:
                    aa:0a:73:03:c8:2b:d9:c6:98:4a:79:ca:67:ec:bc:
                    77:50:ca:d6:1d:17:5b:c2:3c:e3:b0:4d:58:19:af:
                    1d:f9:f3:2c:e4:58:c6:36:77:8e:8e:ff:2b:a6:30:
                    7b:7d
                Exponent: 65537 (0x10001)
        X509v3 extensions:
            X509v3 Basic Constraints: 
                CA:TRUE
            X509v3 Subject Key Identifier: 
                EF:F1:18:06:8F:F2:DC:DC:71:79:0E:4D:14:99:76:84:3B:BD:A1:FC
            X509v3 Authority Key Identifier: 
                keyid:B3:D6:43:39:63:DC:BC:32:1E:1E:CB:D2:0F:3B:10:71:64:DE:89:EC
                DirName:/CN=root
                serial:30:89:F1:24:43:FF:DA:17:2B:75:8F:9B:00:D5:B7:F4:01:1E:61:E0

            X509v3 Key Usage: 
                Certificate Sign, CRL Sign
    Signature Algorithm: sha256WithRSAEncryption
         9c:ac:dc:e3:c8:c4:e9:70:69:5d:7d:09:03:b9:49:16:27:6e:
         55:d0:94:ce:82:cf:b4:2b:fe:70:26:27:03:8a:5b:0d:1e:07:
         5f:ec:fd:32:1f:12:0b:13:52:fe:26:7d:55:66:df:a5:39:91:
         f7:5f:d9:c9:af:4b:9d:82:b8:ea:73:dc:fc:c0:b9:e1:45:90:
         30:18:43:34:02:81:07:dd:71:bd:5f:d5:f0:94:51:36:af:7c:
         6a:2a:04:90:d4:60:5d:99:df:46:da:1a:e0:31:b2:26:13:dc:
         a8:bd:de:f7:89:af:89:6c:f7:07:28:dc:75:c2:89:11:71:71:
         fa:4f:dc:12:f6:63:56:8e:de:f8:8c:ba:fd:7c:61:11:47:77:
         80:f8:9f:8f:3d:96:fc:d4:df:19:7f:2c:58:e0:73:77:60:fc:
         39:91:a5:25:42:70:d4:c0:57:4b:3c:9e:b6:e0:e9:48:7c:06:
         49:84:ad:d6:6e:97:4b:a2:56:27:bb:d8:ad:39:da:88:6a:2e:
         26:9f:96:03:59:c5:2c:e9:68:37:85:de:9b:66:72:b0:2e:e2:
         8b:4c:53:b8:e1:9d:94:99:5e:6e:c9:30:77:e3:55:cb:92:c3:
         06:80:66:97:4b:65:2f:ba:4c:9a:6c:94:94:be:c6:d6:07:05:
         dc:49:26:0b
-----BEGIN CERTIFICATE-----
MIIDNDCCAhygAwIBAgIRAOcJeaYo2MtO4JxMF8dS22IwDQYJKoZIhvcNAQELBQAw
DzENMAsGA1UEAwwEcm9vdDAeFw0yMjA1MjcxMTAzNTBaFw0yNDA4MjkxMTAzNTBa
MBAxDjAMBgNVBAMMBXZlbnVzMIIBIjANBgkqhkiG9w0BAQEFAAOCAQ8AMIIBCgKC
AQEA6Njf/9Qv5pY6up+Bbq20Wgrjl98IJ47BjJhiKxWn0HKLZdgnaohwKjKM6jKe
LUDX9XGEXiRVjdNlndlfChzR4HVJVmWPxAkRluP2yA94Eytv5f9rLQvsaT3xx6m/
7ojSSvwKMnQpYyDCsnKEKSSF6WiovCojc2oMrbG9fVxzk734k+okK9gW63hFlBME
cKqMaUaTPJeDMeZ3LQ+eWQICYXOvqBDpw3S+8eIZ+N6Go78GbdUl5/pZNZiaybY2
MntP3sHYCXm8bCr+UsFQ9MeQy/eqCnMDyCvZxphKecpn7Lx3UMrWHRdbwjzjsE1Y
Ga8d+fMs5FjGNneOjv8rpjB7fQIDAQABo4GJMIGGMAwGA1UdEwQFMAMBAf8wHQYD
VR0OBBYEFO/xGAaP8tzccXkOTRSZdoQ7vaH8MEoGA1UdIwRDMEGAFLPWQzlj3Lwy
Hh7L0g87EHFk3onsoROkETAPMQ0wCwYDVQQDDARyb290ghQwifEkQ//aFyt1j5sA
1bf0AR5h4DALBgNVHQ8EBAMCAQYwDQYJKoZIhvcNAQELBQADggEBAJys3OPIxOlw
aV19CQO5SRYnblXQlM6Cz7Qr/nAmJwOKWw0eB1/s/TIfEgsTUv4mfVVm36U5kfdf
2cmvS52CuOpz3PzAueFFkDAYQzQCgQfdcb1f1fCUUTavfGoqBJDUYF2Z30baGuAx
siYT3Ki93veJr4ls9wco3HXCiRFxcfpP3BL2Y1aO3viMuv18YRFHd4D4n489lvzU
3xl/LFjgc3dg/DmRpSVCcNTAV0s8nrbg6Uh8BkmErdZul0uiVie72K052ohqLiaf
lgNZxSzpaDeF3ptmcrAu4otMU7jhnZSZXm7JMHfjVcuSwwaAZpdLZS+6TJpslJS+
xtYHBdxJJgs=
-----END CERTIFICATE-----
